target datalayout = "e-m:e-p270:32:32-p271:32:32-p272:64:64-i64:64-i128:128-f80:128-n8:16:32:64-S128"
target triple = "x86_64-pc-linux-gnu"

%struct.PLpgSQL_execstate = type { ptr, ptr, ptr, i64, i8, i32, i32, i8, i8, i8, i8, ptr, ptr, ptr, ptr, ptr, ptr, ptr, i32, i32, ptr, ptr, ptr, ptr, ptr, ptr, ptr, ptr, ptr, ptr, i64, ptr, ptr, ptr, ptr, ptr }
%struct.PLpgSQL_rec = type { i32, i32, ptr, i32, i8, i8, ptr, ptr, i32, i32, ptr }
%struct.ExpandedRecordHeader = type { %struct.ExpandedObjectHeader, i32, i32, i32, i32, i32, ptr, i64, ptr, ptr, i32, i64, i64, i32, i8, ptr, ptr, ptr, ptr, ptr, ptr, %struct.MemoryContextCallback }
%struct.ExpandedObjectHeader = type { i32, ptr, ptr, [10 x i8], [10 x i8] }
%struct.MemoryContextCallback = type { ptr, ptr, ptr }

; Function Attrs: inlinehint nounwind uwtable
define internal i64 @PointerGetDatum(ptr noundef %0) #2 {
  %2 = alloca ptr, align 8
  store ptr %0, ptr %2, align 8
  %3 = load ptr, ptr %2, align 8
  %4 = ptrtoint ptr %3 to i64
  ret i64 %4
}

; Function Attrs: inlinehint nounwind uwtable
define internal i64 @EOHPGetRWDatum(ptr noundef %0) #2 {
  %2 = alloca ptr, align 8
  store ptr %0, ptr %2, align 8
  %3 = load ptr, ptr %2, align 8
  %4 = getelementptr inbounds nuw %struct.ExpandedObjectHeader, ptr %3, i32 0, i32 3
  %5 = getelementptr inbounds [10 x i8], ptr %4, i64 0, i64 0
  %6 = call i64 @PointerGetDatum(ptr noundef %5)
  ret i64 %6
}

; Function Attrs: inlinehint nounwind uwtable
define internal i64 @ExpandedRecordGetDatum(ptr noundef %0) #2 {
  %2 = alloca ptr, align 8
  store ptr %0, ptr %2, align 8
  %3 = load ptr, ptr %2, align 8
  %4 = getelementptr inbounds nuw %struct.ExpandedRecordHeader, ptr %3, i32 0, i32 0
  %5 = call i64 @EOHPGetRWDatum(ptr noundef %4)
  ret i64 %5
}

; Function Attrs: nounwind uwtable
define internal void @assign_record_var(ptr noundef %0, ptr noundef %1, ptr noundef %2) #0 {
  %4 = alloca ptr, align 8
  %5 = alloca ptr, align 8
  %6 = alloca ptr, align 8
  store ptr %0, ptr %4, align 8
  store ptr %1, ptr %5, align 8
  store ptr %2, ptr %6, align 8
  %7 = load ptr, ptr %6, align 8
  %8 = getelementptr inbounds nuw %struct.ExpandedRecordHeader, ptr %7, i32 0, i32 0
  %9 = getelementptr inbounds nuw %struct.ExpandedObjectHeader, ptr %8, i32 0, i32 2
  %10 = load ptr, ptr %9, align 8
  %11 = load ptr, ptr %4, align 8
  %12 = getelementptr inbounds nuw %struct.PLpgSQL_execstate, ptr %11, i32 0, i32 21
  %13 = load ptr, ptr %12, align 8
  call void @MemoryContextSetParent(ptr noundef %10, ptr noundef %13)
  %14 = load ptr, ptr %5, align 8
  %15 = getelementptr inbounds nuw %struct.PLpgSQL_rec, ptr %14, i32 0, i32 10
  %16 = load ptr, ptr %15, align 8
  %17 = icmp ne ptr %16, null
  br i1 %17, label %18, label %23

18:                                               ; preds = %3
  %19 = load ptr, ptr %5, align 8
  %20 = getelementptr inbounds nuw %struct.PLpgSQL_rec, ptr %19, i32 0, i32 10
  %21 = load ptr, ptr %20, align 8
  %22 = call i64 @ExpandedRecordGetDatum(ptr noundef %21)
  call void @DeleteExpandedObject(i64 noundef %22)
  br label %23

23:                                               ; preds = %18, %3
  %24 = load ptr, ptr %6, align 8
  %25 = load ptr, ptr %5, align 8
  %26 = getelementptr inbounds nuw %struct.PLpgSQL_rec, ptr %25, i32 0, i32 10
  store ptr %24, ptr %26, align 8
  ret void
}