; Function Attrs: nounwind uwtable
define internal fastcc void @assign_record_var(ptr %.120.val, ptr noundef captures(none) %0, ptr noundef %1) unnamed_addr #0 {
  %3 = getelementptr inbounds nuw i8, ptr %1, i64 16
  %4 = load ptr, ptr %3, align 8
  tail call void @MemoryContextSetParent(ptr noundef %4, ptr noundef %.120.val) #12
  %5 = getelementptr inbounds nuw i8, ptr %0, i64 48
  %6 = load ptr, ptr %5, align 8
  %.not = icmp eq ptr %6, null
  br i1 %.not, label %10, label %7

7:                                                ; preds = %2
  %8 = getelementptr inbounds nuw i8, ptr %6, i64 24
  %9 = ptrtoint ptr %8 to i64
  tail call void @DeleteExpandedObject(i64 noundef %9) #12
  br label %10

10:                                               ; preds = %7, %2
  store ptr %1, ptr %5, align 8
  ret void
}